; Function Attrs: nounwind sspstrong uwtable
define hidden void @rb_yjit_vm_lock_then_barrier(ptr noundef %0, ptr noundef readnone captures(none) %1, i32 noundef %2) local_unnamed_addr #0 {
  %4 = load ptr, ptr @ruby_single_main_ractor, align 8, !tbaa !21
  %.not.i.i = icmp eq ptr %4, null
  br i1 %.not.i.i, label %5, label %rb_vm_lock_enter.exit

5:                                                ; preds = %3
  tail call void @rb_vm_lock_enter_body(ptr noundef %0) #5
  br label %rb_vm_lock_enter.exit

rb_vm_lock_enter.exit:                            ; preds = %3, %5
  tail call void @rb_vm_barrier() #5
  ret void
}